target datalayout = "e-m:e-p270:32:32-p271:32:32-p272:64:64-i64:64-i128:128-f80:128-n8:16:32:64-S128"
target triple = "x86_64-pc-linux-gnu"

@command_info = internal global ptr null, align 8
@.str.339 = private unnamed_addr constant [10 x i8] c"NXP PN532\00", align 1
@.str.340 = private unnamed_addr constant [6 x i8] c"PN532\00", align 1
@.str.341 = private unnamed_addr constant [6 x i8] c"pn532\00", align 1
@proto_pn532 = internal global i32 0, align 4
@.str.342 = private unnamed_addr constant [8 x i8] c"version\00", align 1
@.str.343 = private unnamed_addr constant [67 x i8] c"PN532 protocol version is based on: \22UM0701-02; PN532 User Manual\22\00", align 1
@.str.344 = private unnamed_addr constant [49 x i8] c"Version of protocol supported by this dissector.\00", align 1
@.str.345 = private unnamed_addr constant [10 x i8] c"prtype532\00", align 1
@.str.346 = private unnamed_addr constant [13 x i8] c"Payload Type\00", align 1
@.str.347 = private unnamed_addr constant [22 x i8] c"Protocol payload type\00", align 1
@sub_selected = internal global i32 0, align 4
@pn532_handle = internal global ptr null, align 8

; Function Attrs: null_pointer_is_valid sspstrong uwtable
define hidden void @proto_register_pn532() #0 {
  %1 = alloca ptr, align 8
  %2 = alloca ptr, align 8
  call void @llvm.lifetime.start.p0(i64 8, ptr %1) #6
  call void @llvm.lifetime.start.p0(i64 8, ptr %2) #6
  %3 = call ptr @wmem_epan_scope()
  %4 = call ptr @wmem_file_scope()
  %5 = call noalias ptr @wmem_tree_new_autoreset(ptr noundef %3, ptr noundef %4)
  store ptr %5, ptr @command_info, align 8
  %6 = call i32 @proto_register_protocol(ptr noundef @.str.339, ptr noundef @.str.340, ptr noundef @.str.341)
  store i32 %6, ptr @proto_pn532, align 4
  %7 = load i32, ptr @proto_pn532, align 4
  call void @proto_register_field_array(i32 noundef %7, ptr noundef @proto_register_pn532.hf, i32 noundef 177)
  call void @proto_register_subtree_array(ptr noundef @proto_register_pn532.ett, i32 noundef 11)
  %8 = load i32, ptr @proto_pn532, align 4
  %9 = call ptr @expert_register_protocol(i32 noundef %8)
  store ptr %9, ptr %2, align 8
  %10 = load ptr, ptr %2, align 8
  call void @expert_register_field_array(ptr noundef %10, ptr noundef @proto_register_pn532.ei, i32 noundef 2)
  %11 = load i32, ptr @proto_pn532, align 4
  %12 = call ptr @prefs_register_protocol(i32 noundef %11, ptr noundef null)
  store ptr %12, ptr %1, align 8
  %13 = load ptr, ptr %1, align 8
  call void @prefs_register_static_text_preference(ptr noundef %13, ptr noundef @.str.342, ptr noundef @.str.343, ptr noundef @.str.344)
  %14 = load ptr, ptr %1, align 8
  call void @prefs_register_enum_preference(ptr noundef %14, ptr noundef @.str.345, ptr noundef @.str.346, ptr noundef @.str.347, ptr noundef @sub_selected, ptr noundef @proto_register_pn532.sub_enum_vals, i1 noundef zeroext false)
  %15 = load i32, ptr @proto_pn532, align 4
  %16 = call ptr @register_dissector(ptr noundef @.str.341, ptr noundef @dissect_pn532, i32 noundef %15)
  store ptr %16, ptr @pn532_handle, align 8
  call void @llvm.lifetime.end.p0(i64 8, ptr %2) #6
  call void @llvm.lifetime.end.p0(i64 8, ptr %1) #6
  ret void
}