; Function Attrs: null_pointer_is_valid sspstrong uwtable
define hidden void @proto_register_pn532() local_unnamed_addr #0 {
  %1 = tail call ptr @wmem_epan_scope()
  %2 = tail call ptr @wmem_file_scope()
  %3 = tail call noalias ptr @wmem_tree_new_autoreset(ptr noundef %1, ptr noundef %2)
  store ptr %3, ptr @command_info, align 8
  %4 = tail call i32 @proto_register_protocol(ptr noundef nonnull @.str.339, ptr noundef nonnull @.str.340, ptr noundef nonnull @.str.341)
  store i32 %4, ptr @proto_pn532, align 4
  tail call void @proto_register_field_array(i32 noundef %4, ptr noundef nonnull @proto_register_pn532.hf, i32 noundef 177)
  tail call void @proto_register_subtree_array(ptr noundef nonnull @proto_register_pn532.ett, i32 noundef 11)
  %5 = load i32, ptr @proto_pn532, align 4
  %6 = tail call ptr @expert_register_protocol(i32 noundef %5)
  tail call void @expert_register_field_array(ptr noundef %6, ptr noundef nonnull @proto_register_pn532.ei, i32 noundef 2)
  %7 = load i32, ptr @proto_pn532, align 4
  %8 = tail call ptr @prefs_register_protocol(i32 noundef %7, ptr noundef null)
  tail call void @prefs_register_static_text_preference(ptr noundef %8, ptr noundef nonnull @.str.342, ptr noundef nonnull @.str.343, ptr noundef nonnull @.str.344)
  tail call void @prefs_register_enum_preference(ptr noundef %8, ptr noundef nonnull @.str.345, ptr noundef nonnull @.str.346, ptr noundef nonnull @.str.347, ptr noundef nonnull @sub_selected, ptr noundef nonnull @proto_register_pn532.sub_enum_vals, i1 noundef zeroext false)
  %9 = load i32, ptr @proto_pn532, align 4
  %10 = tail call ptr @register_dissector(ptr noundef nonnull @.str.341, ptr noundef nonnull @dissect_pn532, i32 noundef %9)
  store ptr %10, ptr @pn532_handle, align 8
  ret void
}